; Function Attrs: mustprogress uwtable
define void @_ZN2cv4gapi7imgproc3ocl7kernelsEv(ptr dead_on_unwind noalias writable sret(%"class.cv::GKernelPackage") align 8 %0) local_unnamed_addr #3 personality ptr @__gxx_personality_v0 {
  %2 = alloca %"struct.std::__detail::_AllocNode", align 8
  %3 = load atomic i8, ptr @_ZGVZN2cv4gapi7imgproc3ocl7kernelsEvE3pkg acquire, align 8
  %4 = icmp eq i8 %3, 0
  br i1 %4, label %5, label %10, !prof !3

5:                                                ; preds = %1
  %6 = tail call i32 @__cxa_guard_acquire(ptr nonnull @_ZGVZN2cv4gapi7imgproc3ocl7kernelsEvE3pkg) #25
  %.not = icmp eq i32 %6, 0
  br i1 %.not, label %10, label %7

7:                                                ; preds = %5
  invoke void @_ZN2cv4gapi7kernelsIJ12GOCLFilter2D10GOCLResize13GOCLSepFilter13GOCLBoxFilter8GOCLBlur13GOCLGaussBlur14GOCLMedianBlur9GOCLErode10GOCLDilate9GOCLSobel13GOCLLaplacian19GOCLBilateralFilter9GOCLCanny16GOCLEqualizeHist11GOCLRGB2YUV11GOCLYUV2RGB11GOCLRGB2Lab11GOCLBGR2LUV11GOCLBGR2YUV11GOCLYUV2BGR11GOCLLUV2BGR12GOCLBGR2Gray12GOCLRGB2Gray18GOCLRGB2GrayCustomEEENS_14GKernelPackageEv(ptr dead_on_unwind nonnull writable sret(%"class.cv::GKernelPackage") align 8 @_ZZN2cv4gapi7imgproc3ocl7kernelsEvE3pkg)
          to label %8 unwind label %21

8:                                                ; preds = %7
  %9 = tail call i32 @__cxa_atexit(ptr nonnull @_ZN2cv14GKernelPackageD2Ev, ptr nonnull @_ZZN2cv4gapi7imgproc3ocl7kernelsEvE3pkg, ptr nonnull @__dso_handle) #25
  tail call void @__cxa_guard_release(ptr nonnull @_ZGVZN2cv4gapi7imgproc3ocl7kernelsEvE3pkg) #25
  br label %10

10:                                               ; preds = %8, %5, %1
  store ptr null, ptr %0, align 8, !tbaa !4
  %11 = getelementptr inbounds nuw i8, ptr %0, i64 8
  %12 = load i64, ptr getelementptr inbounds nuw (i8, ptr @_ZZN2cv4gapi7imgproc3ocl7kernelsEvE3pkg, i64 8), align 8, !tbaa !16
  store i64 %12, ptr %11, align 8, !tbaa !16
  %13 = getelementptr inbounds nuw i8, ptr %0, i64 16
  store ptr null, ptr %13, align 8, !tbaa !17
  %14 = getelementptr inbounds nuw i8, ptr %0, i64 24
  %15 = load i64, ptr getelementptr inbounds nuw (i8, ptr @_ZZN2cv4gapi7imgproc3ocl7kernelsEvE3pkg, i64 24), align 8, !tbaa !18
  store i64 %15, ptr %14, align 8, !tbaa !18
  %16 = getelementptr inbounds nuw i8, ptr %0, i64 32
  tail call void @llvm.memcpy.p0.p0.i64(ptr noundef nonnull align 8 dereferenceable(16) %16, ptr noundef nonnull align 8 dereferenceable(16) getelementptr inbounds nuw (i8, ptr @_ZZN2cv4gapi7imgproc3ocl7kernelsEvE3pkg, i64 32), i64 16, i1 false), !tbaa.struct !19
  %17 = getelementptr inbounds nuw i8, ptr %0, i64 48
  store ptr null, ptr %17, align 8, !tbaa !22
  call void @llvm.lifetime.start.p0(i64 8, ptr nonnull %2) #25
  store ptr %0, ptr %2, align 8, !tbaa !23
  call void @_ZNSt10_HashtableINSt7__cxx1112basic_stringIcSt11char_traitsIcESaIcEEESt4pairIKS5_S6_IN2cv4gapi8GBackendENS8_11GKernelImplEEESaISD_ENSt8__detail10_Select1stESt8equal_toIS5_ESt4hashIS5_ENSF_18_Mod_range_hashingENSF_20_Default_ranged_hashENSF_20_Prime_rehash_policyENSF_17_Hashtable_traitsILb1ELb0ELb1EEEE9_M_assignIRKSQ_NSF_10_AllocNodeISaINSF_10_Hash_nodeISD_Lb1EEEEEEEEvOT_RKT0_(ptr noundef nonnull align 8 dereferenceable(80) %0, ptr noundef nonnull align 8 dereferenceable(56) @_ZZN2cv4gapi7imgproc3ocl7kernelsEvE3pkg, ptr noundef nonnull align 8 dereferenceable(8) %2)
  call void @llvm.lifetime.end.p0(i64 8, ptr nonnull %2) #25
  %18 = getelementptr inbounds nuw i8, ptr %0, i64 56
  invoke void @_ZNSt6vectorIN2cv10GTransformESaIS1_EEC2ERKS3_(ptr noundef nonnull align 8 dereferenceable(24) %18, ptr noundef nonnull align 8 dereferenceable(24) getelementptr inbounds nuw (i8, ptr @_ZZN2cv4gapi7imgproc3ocl7kernelsEvE3pkg, i64 56))
          to label %_ZN2cv14GKernelPackageC2ERKS0_.exit unwind label %19

common.resume:                                    ; preds = %21, %19
  %common.resume.op = phi { ptr, i32 } [ %20, %19 ], [ %22, %21 ]
  resume { ptr, i32 } %common.resume.op

19:                                               ; preds = %10
  %20 = landingpad { ptr, i32 }
          cleanup
  call void @_ZNSt13unordered_mapINSt7__cxx1112basic_stringIcSt11char_traitsIcESaIcEEESt4pairIN2cv4gapi8GBackendENS7_11GKernelImplEESt4hashIS5_ESt8equal_toIS5_ESaIS6_IKS5_SB_EEED2Ev(ptr noundef nonnull align 8 dereferenceable(80) %0) #25
  br label %common.resume

_ZN2cv14GKernelPackageC2ERKS0_.exit:              ; preds = %10
  ret void

21:                                               ; preds = %7
  %22 = landingpad { ptr, i32 }
          cleanup
  tail call void @__cxa_guard_abort(ptr nonnull @_ZGVZN2cv4gapi7imgproc3ocl7kernelsEvE3pkg) #25
  br label %common.resume
}